target datalayout = "e-m:e-p270:32:32-p271:32:32-p272:64:64-i64:64-i128:128-f80:128-n8:16:32:64-S128"
target triple = "x86_64-pc-linux-gnu"

%"class.cv::Range" = type { i32, i32 }
%"class.cv::Mat" = type { i32, i32, i32, i32, ptr, ptr, ptr, ptr, ptr, ptr, %"struct.cv::MatSize", %"struct.cv::MatStep" }
%"struct.cv::MatSize" = type { ptr }
%"struct.cv::MatStep" = type { ptr, [2 x i64] }
%class.anon.1 = type { ptr, ptr, ptr, ptr, ptr, ptr, ptr }

; Function Attrs: inlinehint mustprogress nounwind uwtable
define linkonce_odr noundef float @_ZSt4sqrtf(float noundef %0) #9 comdat {
  %2 = alloca float, align 4
  store float %0, ptr %2, align 4, !tbaa !8
  %3 = load float, ptr %2, align 4, !tbaa !8
  %4 = call float @sqrtf(float noundef %3) #3, !tbaa !37
  ret float %4
}

; Function Attrs: inlinehint mustprogress nounwind uwtable
define linkonce_odr noundef nonnull align 4 dereferenceable(4) ptr @_ZSt3maxIfERKT_S2_S2_(ptr noundef nonnull align 4 dereferenceable(4) %0, ptr noundef nonnull align 4 dereferenceable(4) %1) #9 comdat {
  %3 = alloca ptr, align 8
  %4 = alloca ptr, align 8
  %5 = alloca ptr, align 8
  store ptr %0, ptr %4, align 8, !tbaa !16
  store ptr %1, ptr %5, align 8, !tbaa !16
  %6 = load ptr, ptr %4, align 8, !tbaa !16
  %7 = load float, ptr %6, align 4, !tbaa !8
  %8 = load ptr, ptr %5, align 8, !tbaa !16
  %9 = load float, ptr %8, align 4, !tbaa !8
  %10 = fcmp olt float %7, %9
  br i1 %10, label %11, label %13

11:                                               ; preds = %2
  %12 = load ptr, ptr %5, align 8, !tbaa !16
  store ptr %12, ptr %3, align 8
  br label %15

13:                                               ; preds = %2
  %14 = load ptr, ptr %4, align 8, !tbaa !16
  store ptr %14, ptr %3, align 8
  br label %15

15:                                               ; preds = %13, %11
  %16 = load ptr, ptr %3, align 8
  ret ptr %16
}

; Function Attrs: inlinehint mustprogress nounwind uwtable
define linkonce_odr hidden noundef ptr @_ZN2cv3Mat3ptrIfEEPT_i(ptr noundef nonnull align 8 dereferenceable(96) %0, i32 noundef %1) #9 comdat align 2 {
  %3 = alloca ptr, align 8
  %4 = alloca i32, align 4
  store ptr %0, ptr %3, align 8, !tbaa !3
  store i32 %1, ptr %4, align 4, !tbaa !37
  %5 = load ptr, ptr %3, align 8
  %6 = getelementptr inbounds nuw %"class.cv::Mat", ptr %5, i32 0, i32 4
  %7 = load ptr, ptr %6, align 8, !tbaa !99
  %8 = getelementptr inbounds nuw %"class.cv::Mat", ptr %5, i32 0, i32 11
  %9 = getelementptr inbounds nuw %"struct.cv::MatStep", ptr %8, i32 0, i32 0
  %10 = load ptr, ptr %9, align 8, !tbaa !100
  %11 = getelementptr inbounds i64, ptr %10, i64 0
  %12 = load i64, ptr %11, align 8, !tbaa !10
  %13 = load i32, ptr %4, align 4, !tbaa !37
  %14 = sext i32 %13 to i64
  %15 = mul i64 %12, %14
  %16 = getelementptr inbounds nuw i8, ptr %7, i64 %15
  ret ptr %16
}

; Function Attrs: inlinehint mustprogress nounwind uwtable
define linkonce_odr hidden noundef ptr @_ZNK2cv3Mat3ptrIKfEEPKT_i(ptr noundef nonnull align 8 dereferenceable(96) %0, i32 noundef %1) #9 comdat align 2 {
  %3 = alloca ptr, align 8
  %4 = alloca i32, align 4
  store ptr %0, ptr %3, align 8, !tbaa !3
  store i32 %1, ptr %4, align 4, !tbaa !37
  %5 = load ptr, ptr %3, align 8
  %6 = getelementptr inbounds nuw %"class.cv::Mat", ptr %5, i32 0, i32 4
  %7 = load ptr, ptr %6, align 8, !tbaa !99
  %8 = getelementptr inbounds nuw %"class.cv::Mat", ptr %5, i32 0, i32 11
  %9 = getelementptr inbounds nuw %"struct.cv::MatStep", ptr %8, i32 0, i32 0
  %10 = load ptr, ptr %9, align 8, !tbaa !100
  %11 = getelementptr inbounds i64, ptr %10, i64 0
  %12 = load i64, ptr %11, align 8, !tbaa !10
  %13 = load i32, ptr %4, align 4, !tbaa !37
  %14 = sext i32 %13 to i64
  %15 = mul i64 %12, %14
  %16 = getelementptr inbounds nuw i8, ptr %7, i64 %15
  ret ptr %16
}

; Function Attrs: inlinehint mustprogress nounwind uwtable
define internal void @"_ZZN2cv3dnn8fastNormERKNS_3MatES3_S3_RS1_fmENK3$_0clERKNS_5RangeE"(ptr noundef nonnull align 8 dereferenceable(56) %0, ptr noundef nonnull align 4 dereferenceable(8) %1) #9 align 2 {
  %3 = alloca ptr, align 8
  %4 = alloca ptr, align 8
  %5 = alloca ptr, align 8
  %6 = alloca ptr, align 8
  %7 = alloca ptr, align 8
  %8 = alloca ptr, align 8
  %9 = alloca i32, align 4
  %10 = alloca i32, align 4
  %11 = alloca ptr, align 8
  %12 = alloca ptr, align 8
  %13 = alloca float, align 4
  %14 = alloca float, align 4
  %15 = alloca i32, align 4
  %16 = alloca float, align 4
  %17 = alloca float, align 4
  %18 = alloca float, align 4
  %19 = alloca float, align 4
  %20 = alloca i64, align 8
  store ptr %0, ptr %3, align 8, !tbaa !47
  store ptr %1, ptr %4, align 8, !tbaa !40
  %21 = load ptr, ptr %3, align 8
  call void @llvm.lifetime.start.p0(i64 8, ptr %5) #3
  %22 = getelementptr inbounds nuw %class.anon.1, ptr %21, i32 0, i32 0
  %23 = load ptr, ptr %22, align 8, !tbaa !113
  %24 = call noundef ptr @_ZNK2cv3Mat3ptrIKfEEPKT_i(ptr noundef nonnull align 8 dereferenceable(96) %23, i32 noundef 0)
  store ptr %24, ptr %5, align 8, !tbaa !16
  call void @llvm.lifetime.start.p0(i64 8, ptr %6) #3
  %25 = getelementptr inbounds nuw %class.anon.1, ptr %21, i32 0, i32 1
  %26 = load ptr, ptr %25, align 8, !tbaa !115
  %27 = call noundef ptr @_ZNK2cv3Mat3ptrIKfEEPKT_i(ptr noundef nonnull align 8 dereferenceable(96) %26, i32 noundef 0)
  store ptr %27, ptr %6, align 8, !tbaa !16
  call void @llvm.lifetime.start.p0(i64 8, ptr %7) #3
  %28 = getelementptr inbounds nuw %class.anon.1, ptr %21, i32 0, i32 2
  %29 = load ptr, ptr %28, align 8, !tbaa !116
  %30 = call noundef ptr @_ZNK2cv3Mat3ptrIKfEEPKT_i(ptr noundef nonnull align 8 dereferenceable(96) %29, i32 noundef 0)
  store ptr %30, ptr %7, align 8, !tbaa !16
  call void @llvm.lifetime.start.p0(i64 8, ptr %8) #3
  %31 = getelementptr inbounds nuw %class.anon.1, ptr %21, i32 0, i32 3
  %32 = load ptr, ptr %31, align 8, !tbaa !117
  %33 = call noundef ptr @_ZN2cv3Mat3ptrIfEEPT_i(ptr noundef nonnull align 8 dereferenceable(96) %32, i32 noundef 0)
  store ptr %33, ptr %8, align 8, !tbaa !16
  call void @llvm.lifetime.start.p0(i64 4, ptr %9) #3
  %34 = load ptr, ptr %4, align 8, !tbaa !40
  %35 = getelementptr inbounds nuw %"class.cv::Range", ptr %34, i32 0, i32 0
  %36 = load i32, ptr %35, align 4, !tbaa !44
  store i32 %36, ptr %9, align 4, !tbaa !37
  br label %37

37:                                               ; preds = %141, %2
  %38 = load i32, ptr %9, align 4, !tbaa !37
  %39 = load ptr, ptr %4, align 8, !tbaa !40
  %40 = getelementptr inbounds nuw %"class.cv::Range", ptr %39, i32 0, i32 1
  %41 = load i32, ptr %40, align 4, !tbaa !46
  %42 = icmp slt i32 %38, %41
  br i1 %42, label %44, label %43

43:                                               ; preds = %37
  store i32 2, ptr %10, align 4
  call void @llvm.lifetime.end.p0(i64 4, ptr %9) #3
  br label %144

44:                                               ; preds = %37
  call void @llvm.lifetime.start.p0(i64 8, ptr %11) #3
  %45 = load ptr, ptr %5, align 8, !tbaa !16
  %46 = getelementptr inbounds nuw %class.anon.1, ptr %21, i32 0, i32 4
  %47 = load ptr, ptr %46, align 8, !tbaa !118
  %48 = load i64, ptr %47, align 8, !tbaa !10
  %49 = load i32, ptr %9, align 4, !tbaa !37
  %50 = sext i32 %49 to i64
  %51 = mul i64 %48, %50
  %52 = getelementptr inbounds nuw float, ptr %45, i64 %51
  store ptr %52, ptr %11, align 8, !tbaa !16
  call void @llvm.lifetime.start.p0(i64 8, ptr %12) #3
  %53 = load ptr, ptr %8, align 8, !tbaa !16
  %54 = getelementptr inbounds nuw %class.anon.1, ptr %21, i32 0, i32 4
  %55 = load ptr, ptr %54, align 8, !tbaa !118
  %56 = load i64, ptr %55, align 8, !tbaa !10
  %57 = load i32, ptr %9, align 4, !tbaa !37
  %58 = sext i32 %57 to i64
  %59 = mul i64 %56, %58
  %60 = getelementptr inbounds nuw float, ptr %53, i64 %59
  store ptr %60, ptr %12, align 8, !tbaa !16
  call void @llvm.lifetime.start.p0(i64 4, ptr %13) #3
  store float 0.000000e+00, ptr %13, align 4, !tbaa !8
  call void @llvm.lifetime.start.p0(i64 4, ptr %14) #3
  store float 0.000000e+00, ptr %14, align 4, !tbaa !8
  call void @llvm.lifetime.start.p0(i64 4, ptr %15) #3
  store i32 0, ptr %15, align 4, !tbaa !37
  br label %61

61:                                               ; preds = %82, %44
  %62 = load i32, ptr %15, align 4, !tbaa !37
  %63 = sext i32 %62 to i64
  %64 = getelementptr inbounds nuw %class.anon.1, ptr %21, i32 0, i32 4
  %65 = load ptr, ptr %64, align 8, !tbaa !118
  %66 = load i64, ptr %65, align 8, !tbaa !10
  %67 = icmp ult i64 %63, %66
  br i1 %67, label %69, label %68

68:                                               ; preds = %61
  store i32 5, ptr %10, align 4
  call void @llvm.lifetime.end.p0(i64 4, ptr %15) #3
  br label %85

69:                                               ; preds = %61
  call void @llvm.lifetime.start.p0(i64 4, ptr %16) #3
  %70 = load ptr, ptr %11, align 8, !tbaa !16
  %71 = load i32, ptr %15, align 4, !tbaa !37
  %72 = sext i32 %71 to i64
  %73 = getelementptr inbounds float, ptr %70, i64 %72
  %74 = load float, ptr %73, align 4, !tbaa !8
  store float %74, ptr %16, align 4, !tbaa !8
  %75 = load float, ptr %16, align 4, !tbaa !8
  %76 = load float, ptr %13, align 4, !tbaa !8
  %77 = fadd float %76, %75
  store float %77, ptr %13, align 4, !tbaa !8
  %78 = load float, ptr %16, align 4, !tbaa !8
  %79 = load float, ptr %16, align 4, !tbaa !8
  %80 = load float, ptr %14, align 4, !tbaa !8
  %81 = call float @llvm.fmuladd.f32(float %78, float %79, float %80)
  store float %81, ptr %14, align 4, !tbaa !8
  call void @llvm.lifetime.end.p0(i64 4, ptr %16) #3
  br label %82

82:                                               ; preds = %69
  %83 = load i32, ptr %15, align 4, !tbaa !37
  %84 = add nsw i32 %83, 1
  store i32 %84, ptr %15, align 4, !tbaa !37
  br label %61, !llvm.loop !119

85:                                               ; preds = %68
  %86 = getelementptr inbounds nuw %class.anon.1, ptr %21, i32 0, i32 5
  %87 = load ptr, ptr %86, align 8, !tbaa !120
  %88 = load float, ptr %87, align 4, !tbaa !8
  %89 = load float, ptr %13, align 4, !tbaa !8
  %90 = fmul float %89, %88
  store float %90, ptr %13, align 4, !tbaa !8
  call void @llvm.lifetime.start.p0(i64 4, ptr %17) #3
  store float 0.000000e+00, ptr %17, align 4, !tbaa !8
  call void @llvm.lifetime.start.p0(i64 4, ptr %18) #3
  %91 = load float, ptr %14, align 4, !tbaa !8
  %92 = getelementptr inbounds nuw %class.anon.1, ptr %21, i32 0, i32 5
  %93 = load ptr, ptr %92, align 8, !tbaa !120
  %94 = load float, ptr %93, align 4, !tbaa !8
  %95 = load float, ptr %13, align 4, !tbaa !8
  %96 = load float, ptr %13, align 4, !tbaa !8
  %97 = fmul float %95, %96
  %98 = fneg float %97
  %99 = call float @llvm.fmuladd.f32(float %91, float %94, float %98)
  store float %99, ptr %18, align 4, !tbaa !8
  %100 = call noundef nonnull align 4 dereferenceable(4) ptr @_ZSt3maxIfERKT_S2_S2_(ptr noundef nonnull align 4 dereferenceable(4) %17, ptr noundef nonnull align 4 dereferenceable(4) %18)
  %101 = load float, ptr %100, align 4, !tbaa !8
  %102 = getelementptr inbounds nuw %class.anon.1, ptr %21, i32 0, i32 6
  %103 = load ptr, ptr %102, align 8, !tbaa !121
  %104 = load float, ptr %103, align 4, !tbaa !8
  %105 = fadd float %101, %104
  %106 = call noundef float @_ZSt4sqrtf(float noundef %105)
  store float %106, ptr %14, align 4, !tbaa !8
  call void @llvm.lifetime.end.p0(i64 4, ptr %18) #3
  call void @llvm.lifetime.end.p0(i64 4, ptr %17) #3
  call void @llvm.lifetime.start.p0(i64 4, ptr %19) #3
  %107 = load float, ptr %14, align 4, !tbaa !8
  %108 = fdiv float 1.000000e+00, %107
  store float %108, ptr %19, align 4, !tbaa !8
  call void @llvm.lifetime.start.p0(i64 8, ptr %20) #3
  store i64 0, ptr %20, align 8, !tbaa !10
  br label %109

109:                                              ; preds = %137, %85
  %110 = load i64, ptr %20, align 8, !tbaa !10
  %111 = getelementptr inbounds nuw %class.anon.1, ptr %21, i32 0, i32 4
  %112 = load ptr, ptr %111, align 8, !tbaa !118
  %113 = load i64, ptr %112, align 8, !tbaa !10
  %114 = icmp ult i64 %110, %113
  br i1 %114, label %116, label %115

115:                                              ; preds = %109
  store i32 8, ptr %10, align 4
  call void @llvm.lifetime.end.p0(i64 8, ptr %20) #3
  br label %140

116:                                              ; preds = %109
  %117 = load ptr, ptr %6, align 8, !tbaa !16
  %118 = load i64, ptr %20, align 8, !tbaa !10
  %119 = getelementptr inbounds nuw float, ptr %117, i64 %118
  %120 = load float, ptr %119, align 4, !tbaa !8
  %121 = load ptr, ptr %11, align 8, !tbaa !16
  %122 = load i64, ptr %20, align 8, !tbaa !10
  %123 = getelementptr inbounds nuw float, ptr %121, i64 %122
  %124 = load float, ptr %123, align 4, !tbaa !8
  %125 = load float, ptr %13, align 4, !tbaa !8
  %126 = fsub float %124, %125
  %127 = fmul float %120, %126
  %128 = load float, ptr %19, align 4, !tbaa !8
  %129 = load ptr, ptr %7, align 8, !tbaa !16
  %130 = load i64, ptr %20, align 8, !tbaa !10
  %131 = getelementptr inbounds nuw float, ptr %129, i64 %130
  %132 = load float, ptr %131, align 4, !tbaa !8
  %133 = call float @llvm.fmuladd.f32(float %127, float %128, float %132)
  %134 = load ptr, ptr %12, align 8, !tbaa !16
  %135 = load i64, ptr %20, align 8, !tbaa !10
  %136 = getelementptr inbounds nuw float, ptr %134, i64 %135
  store float %133, ptr %136, align 4, !tbaa !8
  br label %137

137:                                              ; preds = %116
  %138 = load i64, ptr %20, align 8, !tbaa !10
  %139 = add i64 %138, 1
  store i64 %139, ptr %20, align 8, !tbaa !10
  br label %109, !llvm.loop !122

140:                                              ; preds = %115
  call void @llvm.lifetime.end.p0(i64 4, ptr %19) #3
  call void @llvm.lifetime.end.p0(i64 4, ptr %14) #3
  call void @llvm.lifetime.end.p0(i64 4, ptr %13) #3
  call void @llvm.lifetime.end.p0(i64 8, ptr %12) #3
  call void @llvm.lifetime.end.p0(i64 8, ptr %11) #3
  br label %141

141:                                              ; preds = %140
  %142 = load i32, ptr %9, align 4, !tbaa !37
  %143 = add nsw i32 %142, 1
  store i32 %143, ptr %9, align 4, !tbaa !37
  br label %37, !llvm.loop !123

144:                                              ; preds = %43
  call void @llvm.lifetime.end.p0(i64 8, ptr %8) #3
  call void @llvm.lifetime.end.p0(i64 8, ptr %7) #3
  call void @llvm.lifetime.end.p0(i64 8, ptr %6) #3
  call void @llvm.lifetime.end.p0(i64 8, ptr %5) #3
  ret void
}

; Function Attrs: mustprogress nounwind uwtable
define linkonce_odr hidden noundef ptr @_ZNKSt9_Any_data9_M_accessEv(ptr noundef nonnull align 8 dereferenceable(16) %0) #7 comdat align 2 {
  %2 = alloca ptr, align 8
  store ptr %0, ptr %2, align 8, !tbaa !80
  %3 = load ptr, ptr %2, align 8
  %4 = getelementptr inbounds [16 x i8], ptr %3, i64 0, i64 0
  ret ptr %4
}

; Function Attrs: mustprogress uwtable
define internal void @"_ZSt13__invoke_implIvRZN2cv3dnn8fastNormERKNS0_3MatES4_S4_RS2_fmE3$_0JRKNS0_5RangeEEET_St14__invoke_otherOT0_DpOT1_"(ptr noundef nonnull align 8 dereferenceable(56) %0, ptr noundef nonnull align 4 dereferenceable(8) %1) #4 {
  %3 = alloca ptr, align 8
  %4 = alloca ptr, align 8
  store ptr %0, ptr %3, align 8, !tbaa !47
  store ptr %1, ptr %4, align 8, !tbaa !40
  %5 = load ptr, ptr %3, align 8, !tbaa !47
  %6 = load ptr, ptr %4, align 8, !tbaa !40
  call void @"_ZZN2cv3dnn8fastNormERKNS_3MatES3_S3_RS1_fmENK3$_0clERKNS_5RangeE"(ptr noundef nonnull align 8 dereferenceable(56) %5, ptr noundef nonnull align 4 dereferenceable(8) %6)
  ret void
}

; Function Attrs: mustprogress nounwind uwtable
define internal noundef nonnull align 8 dereferenceable(8) ptr @"_ZNKSt9_Any_data9_M_accessIPZN2cv3dnn8fastNormERKNS1_3MatES5_S5_RS3_fmE3$_0EERKT_v"(ptr noundef nonnull align 8 dereferenceable(16) %0) #7 align 2 {
  %2 = alloca ptr, align 8
  store ptr %0, ptr %2, align 8, !tbaa !80
  %3 = load ptr, ptr %2, align 8
  %4 = call noundef ptr @_ZNKSt9_Any_data9_M_accessEv(ptr noundef nonnull align 8 dereferenceable(16) %3) #3
  ret ptr %4
}

; Function Attrs: mustprogress uwtable
define internal void @"_ZSt10__invoke_rIvRZN2cv3dnn8fastNormERKNS0_3MatES4_S4_RS2_fmE3$_0JRKNS0_5RangeEEENSt9enable_ifIXsr6__and_ISt7is_voidIT_ESt14__is_invocableIT0_JDpT1_EEEE5valueESD_E4typeEOSG_DpOSH_"(ptr noundef nonnull align 8 dereferenceable(56) %0, ptr noundef nonnull align 4 dereferenceable(8) %1) #4 {
  %3 = alloca ptr, align 8
  %4 = alloca ptr, align 8
  store ptr %0, ptr %3, align 8, !tbaa !47
  store ptr %1, ptr %4, align 8, !tbaa !40
  %5 = load ptr, ptr %3, align 8, !tbaa !47
  %6 = load ptr, ptr %4, align 8, !tbaa !40
  call void @"_ZSt13__invoke_implIvRZN2cv3dnn8fastNormERKNS0_3MatES4_S4_RS2_fmE3$_0JRKNS0_5RangeEEET_St14__invoke_otherOT0_DpOT1_"(ptr noundef nonnull align 8 dereferenceable(56) %5, ptr noundef nonnull align 4 dereferenceable(8) %6)
  ret void
}

; Function Attrs: mustprogress nounwind uwtable
define internal noundef ptr @"_ZNSt14_Function_base13_Base_managerIZN2cv3dnn8fastNormERKNS1_3MatES5_S5_RS3_fmE3$_0E14_M_get_pointerERKSt9_Any_data"(ptr noundef nonnull align 8 dereferenceable(16) %0) #7 align 2 {
  %2 = alloca ptr, align 8
  store ptr %0, ptr %2, align 8, !tbaa !80
  %3 = load ptr, ptr %2, align 8, !tbaa !80
  %4 = call noundef nonnull align 8 dereferenceable(8) ptr @"_ZNKSt9_Any_data9_M_accessIPZN2cv3dnn8fastNormERKNS1_3MatES5_S5_RS3_fmE3$_0EERKT_v"(ptr noundef nonnull align 8 dereferenceable(16) %3) #3
  %5 = load ptr, ptr %4, align 8, !tbaa !47
  ret ptr %5
}

; Function Attrs: mustprogress uwtable
define internal void @"_ZNSt17_Function_handlerIFvRKN2cv5RangeEEZNS0_3dnn8fastNormERKNS0_3MatES8_S8_RS6_fmE3$_0E9_M_invokeERKSt9_Any_dataS3_"(ptr noundef nonnull align 8 dereferenceable(16) %0, ptr noundef nonnull align 4 dereferenceable(8) %1) #4 align 2 {
  %3 = alloca ptr, align 8
  %4 = alloca ptr, align 8
  store ptr %0, ptr %3, align 8, !tbaa !80
  store ptr %1, ptr %4, align 8, !tbaa !40
  %5 = load ptr, ptr %3, align 8, !tbaa !80
  %6 = call noundef ptr @"_ZNSt14_Function_base13_Base_managerIZN2cv3dnn8fastNormERKNS1_3MatES5_S5_RS3_fmE3$_0E14_M_get_pointerERKSt9_Any_data"(ptr noundef nonnull align 8 dereferenceable(16) %5) #3
  %7 = load ptr, ptr %4, align 8, !tbaa !40
  call void @"_ZSt10__invoke_rIvRZN2cv3dnn8fastNormERKNS0_3MatES4_S4_RS2_fmE3$_0JRKNS0_5RangeEEENSt9enable_ifIXsr6__and_ISt7is_voidIT_ESt14__is_invocableIT0_JDpT1_EEEE5valueESD_E4typeEOSG_DpOSH_"(ptr noundef nonnull align 8 dereferenceable(56) %6, ptr noundef nonnull align 4 dereferenceable(8) %7)
  ret void
}