; Function Attrs: mustprogress nofree nounwind memory(readwrite, inaccessiblemem: write) uwtable
define internal void @"_ZNSt17_Function_handlerIFvRKN2cv5RangeEEZNS0_3dnn8fastNormERKNS0_3MatES8_S8_RS6_fmE3$_0E9_M_invokeERKSt9_Any_dataS3_"(ptr noundef nonnull readonly align 8 captures(none) dereferenceable(16) %0, ptr noundef nonnull readonly align 4 captures(none) dereferenceable(8) %1) #13 align 2 {
  %.val = load ptr, ptr %0, align 8, !tbaa !36
  %3 = load ptr, ptr %.val, align 8, !tbaa !71
  %4 = getelementptr inbounds nuw i8, ptr %3, i64 16
  %5 = load ptr, ptr %4, align 8, !tbaa !45
  %6 = getelementptr inbounds nuw i8, ptr %.val, i64 8
  %7 = load ptr, ptr %6, align 8, !tbaa !73
  %8 = getelementptr inbounds nuw i8, ptr %7, i64 16
  %9 = load ptr, ptr %8, align 8, !tbaa !45
  %10 = getelementptr inbounds nuw i8, ptr %.val, i64 16
  %11 = load ptr, ptr %10, align 8, !tbaa !74
  %12 = getelementptr inbounds nuw i8, ptr %11, i64 16
  %13 = load ptr, ptr %12, align 8, !tbaa !45
  %14 = getelementptr inbounds nuw i8, ptr %.val, i64 24
  %15 = load ptr, ptr %14, align 8, !tbaa !75
  %16 = getelementptr inbounds nuw i8, ptr %15, i64 16
  %17 = load ptr, ptr %16, align 8, !tbaa !45
  %18 = load i32, ptr %1, align 4, !tbaa !26
  %19 = getelementptr inbounds nuw i8, ptr %1, i64 4
  %20 = load i32, ptr %19, align 4, !tbaa !28
  %21 = icmp slt i32 %18, %20
  br i1 %21, label %.lr.ph49.i.i.i, label %"_ZSt10__invoke_rIvRZN2cv3dnn8fastNormERKNS0_3MatES4_S4_RS2_fmE3$_0JRKNS0_5RangeEEENSt9enable_ifIXsr6__and_ISt7is_voidIT_ESt14__is_invocableIT0_JDpT1_EEEE5valueESD_E4typeEOSG_DpOSH_.exit"

.lr.ph49.i.i.i:                                   ; preds = %2
  %22 = getelementptr inbounds nuw i8, ptr %.val, i64 32
  %23 = load ptr, ptr %22, align 8, !tbaa !76
  %24 = load i64, ptr %23, align 8, !tbaa !24
  %25 = getelementptr inbounds nuw i8, ptr %.val, i64 40
  %26 = load ptr, ptr %25, align 8, !tbaa !77
  %27 = getelementptr inbounds nuw i8, ptr %.val, i64 48
  %28 = load ptr, ptr %27, align 8, !tbaa !78
  %.not.i.i.i = icmp eq i64 %24, 0
  br i1 %.not.i.i.i, label %.lr.ph49.split.split.preheader.i.i.i, label %.lr.ph.us.us.preheader.i.i.i

.lr.ph.us.us.preheader.i.i.i:                     ; preds = %.lr.ph49.i.i.i
  %29 = sext i32 %18 to i64
  br label %.lr.ph.us.us.i.i.i

.lr.ph49.split.split.preheader.i.i.i:             ; preds = %.lr.ph49.i.i.i
  %.pre.i.i.i = load float, ptr %26, align 4, !tbaa !3
  %.pre69.i.i.i = load float, ptr %28, align 4, !tbaa !3
  %30 = fmul float %.pre.i.i.i, 0.000000e+00
  %31 = fneg float %30
  %32 = fmul float %30, %31
  %33 = tail call float @llvm.fmuladd.f32(float %.pre.i.i.i, float 0.000000e+00, float %32)
  %34 = fcmp ogt float %33, 0.000000e+00
  %.sroa.speculated.i.i.i = select i1 %34, float %33, float 0.000000e+00
  %35 = fadd float %.pre69.i.i.i, %.sroa.speculated.i.i.i
  %36 = fcmp olt float %35, 0.000000e+00
  br i1 %36, label %.lr.ph49.split.split.i.us.i.us.i.us, label %"_ZSt10__invoke_rIvRZN2cv3dnn8fastNormERKNS0_3MatES4_S4_RS2_fmE3$_0JRKNS0_5RangeEEENSt9enable_ifIXsr6__and_ISt7is_voidIT_ESt14__is_invocableIT0_JDpT1_EEEE5valueESD_E4typeEOSG_DpOSH_.exit", !prof !56

.lr.ph49.split.split.i.us.i.us.i.us:              ; preds = %.lr.ph49.split.split.preheader.i.i.i, %.lr.ph49.split.split.i.us.i.us.i.us
  %.03447.i.us.i.us.i.us = phi i32 [ %38, %.lr.ph49.split.split.i.us.i.us.i.us ], [ %18, %.lr.ph49.split.split.preheader.i.i.i ]
  %37 = tail call noundef float @sqrtf(float noundef %35) #21, !tbaa !21
  %38 = add nsw i32 %.03447.i.us.i.us.i.us, 1
  %39 = load i32, ptr %19, align 4, !tbaa !28
  %40 = icmp slt i32 %38, %39
  br i1 %40, label %.lr.ph49.split.split.i.us.i.us.i.us, label %"_ZSt10__invoke_rIvRZN2cv3dnn8fastNormERKNS0_3MatES4_S4_RS2_fmE3$_0JRKNS0_5RangeEEENSt9enable_ifIXsr6__and_ISt7is_voidIT_ESt14__is_invocableIT0_JDpT1_EEEE5valueESD_E4typeEOSG_DpOSH_.exit", !llvm.loop !79

.lr.ph.us.us.i.i.i:                               ; preds = %._crit_edge46.us.us.i.i.i, %.lr.ph.us.us.preheader.i.i.i
  %indvars.iv66.i.i.i = phi i64 [ %29, %.lr.ph.us.us.preheader.i.i.i ], [ %indvars.iv.next67.i.i.i, %._crit_edge46.us.us.i.i.i ]
  %41 = mul i64 %indvars.iv66.i.i.i, %24
  %42 = getelementptr inbounds nuw float, ptr %5, i64 %41
  br label %55

43:                                               ; preds = %._crit_edge.us.us.i.i.i, %43
  %.043.us.us.i.i.i = phi i64 [ 0, %._crit_edge.us.us.i.i.i ], [ %54, %43 ]
  %44 = getelementptr inbounds nuw float, ptr %9, i64 %.043.us.us.i.i.i
  %45 = load float, ptr %44, align 4, !tbaa !3
  %46 = getelementptr inbounds nuw float, ptr %42, i64 %.043.us.us.i.i.i
  %47 = load float, ptr %46, align 4, !tbaa !3
  %48 = fsub float %47, %62
  %49 = fmul float %45, %48
  %50 = getelementptr inbounds nuw float, ptr %13, i64 %.043.us.us.i.i.i
  %51 = load float, ptr %50, align 4, !tbaa !3
  %52 = tail call float @llvm.fmuladd.f32(float %49, float %70, float %51)
  %53 = getelementptr inbounds nuw float, ptr %60, i64 %.043.us.us.i.i.i
  store float %52, ptr %53, align 4, !tbaa !3
  %54 = add nuw i64 %.043.us.us.i.i.i, 1
  %exitcond65.not.i.i.i = icmp eq i64 %54, %24
  br i1 %exitcond65.not.i.i.i, label %._crit_edge46.us.us.i.i.i, label %43, !llvm.loop !80

55:                                               ; preds = %55, %.lr.ph.us.us.i.i.i
  %indvars.iv.i.i.i = phi i64 [ 0, %.lr.ph.us.us.i.i.i ], [ %indvars.iv.next.i.i.i, %55 ]
  %.03640.us.us.i.i.i = phi float [ 0.000000e+00, %.lr.ph.us.us.i.i.i ], [ %59, %55 ]
  %.03739.us.us.i.i.i = phi float [ 0.000000e+00, %.lr.ph.us.us.i.i.i ], [ %58, %55 ]
  %56 = getelementptr inbounds nuw float, ptr %42, i64 %indvars.iv.i.i.i
  %57 = load float, ptr %56, align 4, !tbaa !3
  %58 = fadd float %.03739.us.us.i.i.i, %57
  %59 = tail call float @llvm.fmuladd.f32(float %57, float %57, float %.03640.us.us.i.i.i)
  %indvars.iv.next.i.i.i = add nuw nsw i64 %indvars.iv.i.i.i, 1
  %exitcond.not.i.i.i = icmp eq i64 %indvars.iv.next.i.i.i, %24
  br i1 %exitcond.not.i.i.i, label %._crit_edge.us.us.i.i.i, label %55, !llvm.loop !81

._crit_edge.us.us.i.i.i:                          ; preds = %55
  %60 = getelementptr inbounds nuw float, ptr %17, i64 %41
  %61 = load float, ptr %26, align 4, !tbaa !3
  %62 = fmul float %58, %61
  %63 = fneg float %62
  %64 = fmul float %62, %63
  %65 = tail call float @llvm.fmuladd.f32(float %59, float %61, float %64)
  %66 = fcmp ogt float %65, 0.000000e+00
  %.sroa.speculated.us.us.i.i.i = select i1 %66, float %65, float 0.000000e+00
  %67 = load float, ptr %28, align 4, !tbaa !3
  %68 = fadd float %67, %.sroa.speculated.us.us.i.i.i
  %69 = tail call noundef float @sqrtf(float noundef %68) #21, !tbaa !21
  %70 = fdiv float 1.000000e+00, %69
  br label %43

._crit_edge46.us.us.i.i.i:                        ; preds = %43
  %indvars.iv.next67.i.i.i = add nsw i64 %indvars.iv66.i.i.i, 1
  %71 = load i32, ptr %19, align 4, !tbaa !28
  %72 = sext i32 %71 to i64
  %73 = icmp slt i64 %indvars.iv.next67.i.i.i, %72
  br i1 %73, label %.lr.ph.us.us.i.i.i, label %"_ZSt10__invoke_rIvRZN2cv3dnn8fastNormERKNS0_3MatES4_S4_RS2_fmE3$_0JRKNS0_5RangeEEENSt9enable_ifIXsr6__and_ISt7is_voidIT_ESt14__is_invocableIT0_JDpT1_EEEE5valueESD_E4typeEOSG_DpOSH_.exit", !llvm.loop !79

"_ZSt10__invoke_rIvRZN2cv3dnn8fastNormERKNS0_3MatES4_S4_RS2_fmE3$_0JRKNS0_5RangeEEENSt9enable_ifIXsr6__and_ISt7is_voidIT_ESt14__is_invocableIT0_JDpT1_EEEE5valueESD_E4typeEOSG_DpOSH_.exit": ; preds = %._crit_edge46.us.us.i.i.i, %.lr.ph49.split.split.i.us.i.us.i.us, %2, %.lr.ph49.split.split.preheader.i.i.i
  ret void
}